target datalayout = "e-m:e-p270:32:32-p271:32:32-p272:64:64-i64:64-i128:128-f80:128-n8:16:32:64-S128"
target triple = "x86_64-pc-linux-gnu"

@VP8LFastSLog2Slow = hidden global ptr null, align 8

; Function Attrs: nounwind uwtable
define internal float @VP8LFastSLog2(i32 noundef %0) #0 {
  %2 = alloca i32, align 4
  store i32 %0, ptr %2, align 4
  %3 = load i32, ptr %2, align 4
  %4 = icmp ult i32 %3, 256
  br i1 %4, label %5, label %10

5:                                                ; preds = %1
  %6 = load i32, ptr %2, align 4
  %7 = zext i32 %6 to i64
  %8 = getelementptr inbounds [256 x float], ptr @kSLog2Table, i64 0, i64 %7
  %9 = load float, ptr %8, align 4
  br label %14

10:                                               ; preds = %1
  %11 = load ptr, ptr @VP8LFastSLog2Slow, align 8
  %12 = load i32, ptr %2, align 4
  %13 = call float %11(i32 noundef %12)
  br label %14

14:                                               ; preds = %10, %5
  %15 = phi float [ %9, %5 ], [ %13, %10 ]
  ret float %15
}

; Function Attrs: nounwind uwtable
define internal float @CombinedShannonEntropy_C(ptr noundef %0, ptr noundef %1) #0 {
  %3 = alloca ptr, align 8
  %4 = alloca ptr, align 8
  %5 = alloca i32, align 4
  %6 = alloca float, align 4
  %7 = alloca i32, align 4
  %8 = alloca i32, align 4
  %9 = alloca i32, align 4
  %10 = alloca i32, align 4
  store ptr %0, ptr %3, align 8
  store ptr %1, ptr %4, align 8
  store float 0.000000e+00, ptr %6, align 4
  store i32 0, ptr %7, align 4
  store i32 0, ptr %8, align 4
  store i32 0, ptr %5, align 4
  br label %11

11:                                               ; preds = %69, %2
  %12 = load i32, ptr %5, align 4
  %13 = icmp slt i32 %12, 256
  br i1 %13, label %14, label %72

14:                                               ; preds = %11
  %15 = load ptr, ptr %3, align 8
  %16 = load i32, ptr %5, align 4
  %17 = sext i32 %16 to i64
  %18 = getelementptr inbounds i32, ptr %15, i64 %17
  %19 = load i32, ptr %18, align 4
  store i32 %19, ptr %9, align 4
  %20 = load i32, ptr %9, align 4
  %21 = icmp ne i32 %20, 0
  br i1 %21, label %22, label %44

22:                                               ; preds = %14
  %23 = load i32, ptr %9, align 4
  %24 = load ptr, ptr %4, align 8
  %25 = load i32, ptr %5, align 4
  %26 = sext i32 %25 to i64
  %27 = getelementptr inbounds i32, ptr %24, i64 %26
  %28 = load i32, ptr %27, align 4
  %29 = add i32 %23, %28
  store i32 %29, ptr %10, align 4
  %30 = load i32, ptr %9, align 4
  %31 = load i32, ptr %7, align 4
  %32 = add i32 %31, %30
  store i32 %32, ptr %7, align 4
  %33 = load i32, ptr %9, align 4
  %34 = call float @VP8LFastSLog2(i32 noundef %33)
  %35 = load float, ptr %6, align 4
  %36 = fsub float %35, %34
  store float %36, ptr %6, align 4
  %37 = load i32, ptr %10, align 4
  %38 = load i32, ptr %8, align 4
  %39 = add i32 %38, %37
  store i32 %39, ptr %8, align 4
  %40 = load i32, ptr %10, align 4
  %41 = call float @VP8LFastSLog2(i32 noundef %40)
  %42 = load float, ptr %6, align 4
  %43 = fsub float %42, %41
  store float %43, ptr %6, align 4
  br label %68

44:                                               ; preds = %14
  %45 = load ptr, ptr %4, align 8
  %46 = load i32, ptr %5, align 4
  %47 = sext i32 %46 to i64
  %48 = getelementptr inbounds i32, ptr %45, i64 %47
  %49 = load i32, ptr %48, align 4
  %50 = icmp ne i32 %49, 0
  br i1 %50, label %51, label %67

51:                                               ; preds = %44
  %52 = load ptr, ptr %4, align 8
  %53 = load i32, ptr %5, align 4
  %54 = sext i32 %53 to i64
  %55 = getelementptr inbounds i32, ptr %52, i64 %54
  %56 = load i32, ptr %55, align 4
  %57 = load i32, ptr %8, align 4
  %58 = add i32 %57, %56
  store i32 %58, ptr %8, align 4
  %59 = load ptr, ptr %4, align 8
  %60 = load i32, ptr %5, align 4
  %61 = sext i32 %60 to i64
  %62 = getelementptr inbounds i32, ptr %59, i64 %61
  %63 = load i32, ptr %62, align 4
  %64 = call float @VP8LFastSLog2(i32 noundef %63)
  %65 = load float, ptr %6, align 4
  %66 = fsub float %65, %64
  store float %66, ptr %6, align 4
  br label %67

67:                                               ; preds = %51, %44
  br label %68

68:                                               ; preds = %67, %22
  br label %69

69:                                               ; preds = %68
  %70 = load i32, ptr %5, align 4
  %71 = add nsw i32 %70, 1
  store i32 %71, ptr %5, align 4
  br label %11, !llvm.loop !18

72:                                               ; preds = %11
  %73 = load i32, ptr %7, align 4
  %74 = call float @VP8LFastSLog2(i32 noundef %73)
  %75 = load i32, ptr %8, align 4
  %76 = call float @VP8LFastSLog2(i32 noundef %75)
  %77 = fadd float %74, %76
  %78 = load float, ptr %6, align 4
  %79 = fadd float %78, %77
  store float %79, ptr %6, align 4
  %80 = load float, ptr %6, align 4
  ret float %80
}