; Function Attrs: nounwind uwtable
define internal float @CombinedShannonEntropy_C(ptr nocapture noundef readonly %0, ptr nocapture noundef readonly %1) #1 {
  br label %3

3:                                                ; preds = %2, %45
  %indvars.iv = phi i64 [ 0, %2 ], [ %indvars.iv.next, %45 ]
  %.02741 = phi float [ 0.000000e+00, %2 ], [ %.1, %45 ]
  %.02840 = phi i32 [ 0, %2 ], [ %.129, %45 ]
  %.03039 = phi i32 [ 0, %2 ], [ %.131, %45 ]
  %4 = getelementptr inbounds i32, ptr %0, i64 %indvars.iv
  %5 = load i32, ptr %4, align 4
  %.not = icmp eq i32 %5, 0
  %6 = getelementptr inbounds i32, ptr %1, i64 %indvars.iv
  %7 = load i32, ptr %6, align 4
  br i1 %.not, label %32, label %8

8:                                                ; preds = %3
  %9 = add i32 %7, %5
  %10 = add i32 %5, %.03039
  %11 = icmp ult i32 %5, 256
  br i1 %11, label %12, label %16

12:                                               ; preds = %8
  %13 = zext nneg i32 %5 to i64
  %14 = getelementptr inbounds [256 x float], ptr @kSLog2Table, i64 0, i64 %13
  %15 = load float, ptr %14, align 4
  br label %VP8LFastSLog2.exit

16:                                               ; preds = %8
  %17 = load ptr, ptr @VP8LFastSLog2Slow, align 8
  %18 = tail call float %17(i32 noundef %5) #12
  br label %VP8LFastSLog2.exit

VP8LFastSLog2.exit:                               ; preds = %12, %16
  %19 = phi float [ %15, %12 ], [ %18, %16 ]
  %20 = fsub float %.02741, %19
  %21 = add i32 %9, %.02840
  %22 = icmp ult i32 %9, 256
  br i1 %22, label %23, label %27

23:                                               ; preds = %VP8LFastSLog2.exit
  %24 = zext nneg i32 %9 to i64
  %25 = getelementptr inbounds [256 x float], ptr @kSLog2Table, i64 0, i64 %24
  %26 = load float, ptr %25, align 4
  br label %VP8LFastSLog2.exit35

27:                                               ; preds = %VP8LFastSLog2.exit
  %28 = load ptr, ptr @VP8LFastSLog2Slow, align 8
  %29 = tail call float %28(i32 noundef %9) #12
  br label %VP8LFastSLog2.exit35

VP8LFastSLog2.exit35:                             ; preds = %23, %27
  %30 = phi float [ %26, %23 ], [ %29, %27 ]
  %31 = fsub float %20, %30
  br label %45

32:                                               ; preds = %3
  %.not34 = icmp eq i32 %7, 0
  br i1 %.not34, label %45, label %33

33:                                               ; preds = %32
  %34 = add i32 %7, %.02840
  %35 = icmp ult i32 %7, 256
  br i1 %35, label %36, label %40

36:                                               ; preds = %33
  %37 = zext nneg i32 %7 to i64
  %38 = getelementptr inbounds [256 x float], ptr @kSLog2Table, i64 0, i64 %37
  %39 = load float, ptr %38, align 4
  br label %VP8LFastSLog2.exit36

40:                                               ; preds = %33
  %41 = load ptr, ptr @VP8LFastSLog2Slow, align 8
  %42 = tail call float %41(i32 noundef %7) #12
  br label %VP8LFastSLog2.exit36

VP8LFastSLog2.exit36:                             ; preds = %36, %40
  %43 = phi float [ %39, %36 ], [ %42, %40 ]
  %44 = fsub float %.02741, %43
  br label %45

45:                                               ; preds = %VP8LFastSLog2.exit35, %VP8LFastSLog2.exit36, %32
  %.131 = phi i32 [ %10, %VP8LFastSLog2.exit35 ], [ %.03039, %VP8LFastSLog2.exit36 ], [ %.03039, %32 ]
  %.129 = phi i32 [ %21, %VP8LFastSLog2.exit35 ], [ %34, %VP8LFastSLog2.exit36 ], [ %.02840, %32 ]
  %.1 = phi float [ %31, %VP8LFastSLog2.exit35 ], [ %44, %VP8LFastSLog2.exit36 ], [ %.02741, %32 ]
  %indvars.iv.next = add nuw nsw i64 %indvars.iv, 1
  %exitcond.not = icmp eq i64 %indvars.iv.next, 256
  br i1 %exitcond.not, label %46, label %3, !llvm.loop !18

46:                                               ; preds = %45
  %47 = icmp ult i32 %.131, 256
  br i1 %47, label %48, label %52

48:                                               ; preds = %46
  %49 = zext nneg i32 %.131 to i64
  %50 = getelementptr inbounds [256 x float], ptr @kSLog2Table, i64 0, i64 %49
  %51 = load float, ptr %50, align 4
  br label %VP8LFastSLog2.exit37

52:                                               ; preds = %46
  %53 = load ptr, ptr @VP8LFastSLog2Slow, align 8
  %54 = tail call float %53(i32 noundef %.131) #12
  br label %VP8LFastSLog2.exit37

VP8LFastSLog2.exit37:                             ; preds = %48, %52
  %55 = phi float [ %51, %48 ], [ %54, %52 ]
  %56 = icmp ult i32 %.129, 256
  br i1 %56, label %57, label %61

57:                                               ; preds = %VP8LFastSLog2.exit37
  %58 = zext nneg i32 %.129 to i64
  %59 = getelementptr inbounds [256 x float], ptr @kSLog2Table, i64 0, i64 %58
  %60 = load float, ptr %59, align 4
  br label %VP8LFastSLog2.exit38

61:                                               ; preds = %VP8LFastSLog2.exit37
  %62 = load ptr, ptr @VP8LFastSLog2Slow, align 8
  %63 = tail call float %62(i32 noundef %.129) #12
  br label %VP8LFastSLog2.exit38

VP8LFastSLog2.exit38:                             ; preds = %57, %61
  %64 = phi float [ %60, %57 ], [ %63, %61 ]
  %65 = fadd float %55, %64
  %66 = fadd float %.1, %65
  ret float %66
}